target datalayout = "e-m:e-p270:32:32-p271:32:32-p272:64:64-i64:64-i128:128-f80:128-n8:16:32:64-S128"
target triple = "x86_64-pc-linux-gnu"

%struct.AVFilterContext = type { ptr, ptr, ptr, ptr, ptr, i32, ptr, ptr, i32, ptr, ptr, i32, i32, ptr, ptr, ptr, ptr, i32, ptr, i32, i32 }
%struct.W3FDIFContext = type { ptr, i32, i32, i32, i32, [4 x i32], [4 x i32], i32, i32, i32, ptr, ptr, ptr, ptr, i32, i32, %struct.W3FDIFDSPContext }
%struct.W3FDIFDSPContext = type { ptr, ptr, ptr, ptr, ptr }
%struct.AVFilterLink = type { ptr, ptr, ptr, ptr, i32, i32, i32, i32, %struct.AVRational, i32, i32, i32, %struct.AVChannelLayout, %struct.AVRational, ptr, i32, %struct.AVFilterFormatsConfig, %struct.AVFilterFormatsConfig }
%struct.AVChannelLayout = type { i32, i32, %union.anon.1, ptr }
%union.anon.1 = type { i64 }
%struct.AVRational = type { i32, i32 }
%struct.AVFilterFormatsConfig = type { ptr, ptr, ptr, ptr, ptr }
%struct.AVFrame = type { [8 x ptr], [8 x i32], ptr, i32, i32, i32, i32, i32, %struct.AVRational, i64, i64, %struct.AVRational, i32, ptr, i32, i32, [8 x ptr], ptr, i32, ptr, i32, i32, i32, i32, i32, i32, i32, i64, ptr, i32, ptr, ptr, i64, i64, i64, i64, ptr, %struct.AVChannelLayout, i64 }

; Function Attrs: nounwind uwtable
define internal i32 @request_frame(ptr noundef %0) #2 {
  %2 = alloca i32, align 4
  %3 = alloca ptr, align 8
  %4 = alloca ptr, align 8
  %5 = alloca ptr, align 8
  %6 = alloca i32, align 4
  %7 = alloca i32, align 4
  %8 = alloca ptr, align 8
  store ptr %0, ptr %3, align 8, !tbaa !33
  call void @llvm.lifetime.start.p0(i64 8, ptr %4) #10
  %9 = load ptr, ptr %3, align 8, !tbaa !33
  %10 = getelementptr inbounds nuw %struct.AVFilterLink, ptr %9, i32 0, i32 0
  %11 = load ptr, ptr %10, align 8, !tbaa !114
  store ptr %11, ptr %4, align 8, !tbaa !4
  call void @llvm.lifetime.start.p0(i64 8, ptr %5) #10
  %12 = load ptr, ptr %4, align 8, !tbaa !4
  %13 = getelementptr inbounds nuw %struct.AVFilterContext, ptr %12, i32 0, i32 9
  %14 = load ptr, ptr %13, align 8, !tbaa !9
  store ptr %14, ptr %5, align 8, !tbaa !22
  call void @llvm.lifetime.start.p0(i64 4, ptr %6) #10
  %15 = load ptr, ptr %5, align 8, !tbaa !22
  %16 = getelementptr inbounds nuw %struct.W3FDIFContext, ptr %15, i32 0, i32 8
  %17 = load i32, ptr %16, align 4, !tbaa !115
  %18 = icmp ne i32 %17, 0
  br i1 %18, label %19, label %20

19:                                               ; preds = %1
  store i32 -541478725, ptr %2, align 4
  store i32 1, ptr %7, align 4
  br label %76

20:                                               ; preds = %1
  %21 = load ptr, ptr %4, align 8, !tbaa !4
  %22 = getelementptr inbounds nuw %struct.AVFilterContext, ptr %21, i32 0, i32 4
  %23 = load ptr, ptr %22, align 8, !tbaa !116
  %24 = getelementptr inbounds ptr, ptr %23, i64 0
  %25 = load ptr, ptr %24, align 8, !tbaa !33
  %26 = call i32 @ff_request_frame(ptr noundef %25)
  store i32 %26, ptr %6, align 4, !tbaa !24
  %27 = load i32, ptr %6, align 4, !tbaa !24
  %28 = icmp eq i32 %27, -541478725
  br i1 %28, label %29, label %69

29:                                               ; preds = %20
  %30 = load ptr, ptr %5, align 8, !tbaa !22
  %31 = getelementptr inbounds nuw %struct.W3FDIFContext, ptr %30, i32 0, i32 11
  %32 = load ptr, ptr %31, align 8, !tbaa !44
  %33 = icmp ne ptr %32, null
  br i1 %33, label %34, label %69

34:                                               ; preds = %29
  call void @llvm.lifetime.start.p0(i64 8, ptr %8) #10
  %35 = load ptr, ptr %5, align 8, !tbaa !22
  %36 = getelementptr inbounds nuw %struct.W3FDIFContext, ptr %35, i32 0, i32 12
  %37 = load ptr, ptr %36, align 8, !tbaa !46
  %38 = call ptr @av_frame_clone(ptr noundef %37)
  store ptr %38, ptr %8, align 8, !tbaa !35
  %39 = load ptr, ptr %8, align 8, !tbaa !35
  %40 = icmp ne ptr %39, null
  br i1 %40, label %42, label %41

41:                                               ; preds = %34
  store i32 -12, ptr %2, align 4
  store i32 1, ptr %7, align 4
  br label %66

42:                                               ; preds = %34
  %43 = load ptr, ptr %5, align 8, !tbaa !22
  %44 = getelementptr inbounds nuw %struct.W3FDIFContext, ptr %43, i32 0, i32 12
  %45 = load ptr, ptr %44, align 8, !tbaa !46
  %46 = getelementptr inbounds nuw %struct.AVFrame, ptr %45, i32 0, i32 9
  %47 = load i64, ptr %46, align 8, !tbaa !55
  %48 = mul nsw i64 %47, 2
  %49 = load ptr, ptr %5, align 8, !tbaa !22
  %50 = getelementptr inbounds nuw %struct.W3FDIFContext, ptr %49, i32 0, i32 11
  %51 = load ptr, ptr %50, align 8, !tbaa !44
  %52 = getelementptr inbounds nuw %struct.AVFrame, ptr %51, i32 0, i32 9
  %53 = load i64, ptr %52, align 8, !tbaa !55
  %54 = sub nsw i64 %48, %53
  %55 = load ptr, ptr %8, align 8, !tbaa !35
  %56 = getelementptr inbounds nuw %struct.AVFrame, ptr %55, i32 0, i32 9
  store i64 %54, ptr %56, align 8, !tbaa !55
  %57 = load ptr, ptr %4, align 8, !tbaa !4
  %58 = getelementptr inbounds nuw %struct.AVFilterContext, ptr %57, i32 0, i32 4
  %59 = load ptr, ptr %58, align 8, !tbaa !116
  %60 = getelementptr inbounds ptr, ptr %59, i64 0
  %61 = load ptr, ptr %60, align 8, !tbaa !33
  %62 = load ptr, ptr %8, align 8, !tbaa !35
  %63 = call i32 @filter_frame(ptr noundef %61, ptr noundef %62)
  %64 = load ptr, ptr %5, align 8, !tbaa !22
  %65 = getelementptr inbounds nuw %struct.W3FDIFContext, ptr %64, i32 0, i32 8
  store i32 1, ptr %65, align 4, !tbaa !115
  store i32 0, ptr %7, align 4
  br label %66

66:                                               ; preds = %42, %41
  call void @llvm.lifetime.end.p0(i64 8, ptr %8) #10
  %67 = load i32, ptr %7, align 4
  switch i32 %67, label %76 [
    i32 0, label %68
  ]

68:                                               ; preds = %66
  br label %75

69:                                               ; preds = %29, %20
  %70 = load i32, ptr %6, align 4, !tbaa !24
  %71 = icmp slt i32 %70, 0
  br i1 %71, label %72, label %74

72:                                               ; preds = %69
  %73 = load i32, ptr %6, align 4, !tbaa !24
  store i32 %73, ptr %2, align 4
  store i32 1, ptr %7, align 4
  br label %76

74:                                               ; preds = %69
  br label %75

75:                                               ; preds = %74, %68
  store i32 0, ptr %2, align 4
  store i32 1, ptr %7, align 4
  br label %76

76:                                               ; preds = %75, %72, %66, %19
  call void @llvm.lifetime.end.p0(i64 4, ptr %6) #10
  call void @llvm.lifetime.end.p0(i64 8, ptr %5) #10
  call void @llvm.lifetime.end.p0(i64 8, ptr %4) #10
  %77 = load i32, ptr %2, align 4
  ret i32 %77
}