; Function Attrs: nounwind uwtable
define internal range(i32 -2147483648, 1) i32 @request_frame(ptr noundef readonly captures(none) %0) #2 {
  %2 = load ptr, ptr %0, align 8, !tbaa !99
  %3 = getelementptr inbounds nuw i8, ptr %2, i64 72
  %4 = load ptr, ptr %3, align 8, !tbaa !4
  %5 = getelementptr inbounds nuw i8, ptr %4, i64 60
  %6 = load i32, ptr %5, align 4, !tbaa !100
  %.not = icmp eq i32 %6, 0
  br i1 %.not, label %7, label %.critedge

7:                                                ; preds = %1
  %8 = getelementptr inbounds nuw i8, ptr %2, i64 32
  %9 = load ptr, ptr %8, align 8, !tbaa !101
  %10 = load ptr, ptr %9, align 8, !tbaa !50
  %11 = tail call i32 @ff_request_frame(ptr noundef %10) #11
  %12 = icmp eq i32 %11, -541478725
  br i1 %12, label %13, label %33

13:                                               ; preds = %7
  %14 = getelementptr inbounds nuw i8, ptr %4, i64 80
  %15 = load ptr, ptr %14, align 8, !tbaa !37
  %.not20 = icmp eq ptr %15, null
  br i1 %.not20, label %.critedge, label %16

16:                                               ; preds = %13
  %17 = getelementptr inbounds nuw i8, ptr %4, i64 88
  %18 = load ptr, ptr %17, align 8, !tbaa !39
  %19 = tail call ptr @av_frame_clone(ptr noundef %18) #11
  %.not21.not = icmp eq ptr %19, null
  br i1 %.not21.not, label %.critedge, label %20

20:                                               ; preds = %16
  %21 = load ptr, ptr %17, align 8, !tbaa !39
  %22 = getelementptr inbounds nuw i8, ptr %21, i64 136
  %23 = load i64, ptr %22, align 8, !tbaa !48
  %24 = shl nsw i64 %23, 1
  %25 = load ptr, ptr %14, align 8, !tbaa !37
  %26 = getelementptr inbounds nuw i8, ptr %25, i64 136
  %27 = load i64, ptr %26, align 8, !tbaa !48
  %28 = sub nsw i64 %24, %27
  %29 = getelementptr inbounds nuw i8, ptr %19, i64 136
  store i64 %28, ptr %29, align 8, !tbaa !48
  %30 = load ptr, ptr %8, align 8, !tbaa !101
  %31 = load ptr, ptr %30, align 8, !tbaa !50
  %32 = tail call i32 @filter_frame(ptr noundef %31, ptr noundef nonnull %19)
  store i32 1, ptr %5, align 4, !tbaa !100
  br label %35

33:                                               ; preds = %7
  %34 = icmp slt i32 %11, 0
  br i1 %34, label %.critedge, label %35

35:                                               ; preds = %20, %33
  br label %.critedge

.critedge:                                        ; preds = %13, %16, %33, %1, %35
  %.0 = phi i32 [ 0, %35 ], [ -541478725, %1 ], [ %11, %33 ], [ -12, %16 ], [ -541478725, %13 ]
  ret i32 %.0
}